ARM GAS  /tmp/ccCgd1c0.s 			page 1


   1              		.cpu cortex-m4
   2              		.eabi_attribute 27, 1
   3              		.eabi_attribute 28, 1
   4              		.eabi_attribute 20, 1
   5              		.eabi_attribute 21, 1
   6              		.eabi_attribute 23, 3
   7              		.eabi_attribute 24, 1
   8              		.eabi_attribute 25, 1
   9              		.eabi_attribute 26, 1
  10              		.eabi_attribute 30, 1
  11              		.eabi_attribute 34, 1
  12              		.eabi_attribute 18, 4
  13              		.file	"cordic.c"
  14              		.text
  15              	.Ltext0:
  16              		.cfi_sections	.debug_frame
  17              		.section	.text.MX_CORDIC_Init,"ax",%progbits
  18              		.align	1
  19              		.global	MX_CORDIC_Init
  20              		.arch armv7e-m
  21              		.syntax unified
  22              		.thumb
  23              		.thumb_func
  24              		.fpu fpv4-sp-d16
  26              	MX_CORDIC_Init:
  27              	.LFB209:
  28              		.file 1 "Src/cordic.c"
   1:Src/cordic.c  **** /**
   2:Src/cordic.c  ****   ******************************************************************************
   3:Src/cordic.c  ****   * File Name          : CORDIC.c
   4:Src/cordic.c  ****   * Description        : This file provides code for the configuration
   5:Src/cordic.c  ****   *                      of the CORDIC instances.
   6:Src/cordic.c  ****   ******************************************************************************
   7:Src/cordic.c  ****   * @attention
   8:Src/cordic.c  ****   *
   9:Src/cordic.c  ****   * <h2><center>&copy; Copyright (c) 2020 STMicroelectronics.
  10:Src/cordic.c  ****   * All rights reserved.</center></h2>
  11:Src/cordic.c  ****   *
  12:Src/cordic.c  ****   * This software component is licensed by ST under Ultimate Liberty license
  13:Src/cordic.c  ****   * SLA0044, the "License"; You may not use this file except in compliance with
  14:Src/cordic.c  ****   * the License. You may obtain a copy of the License at:
  15:Src/cordic.c  ****   *                             www.st.com/SLA0044
  16:Src/cordic.c  ****   *
  17:Src/cordic.c  ****   ******************************************************************************
  18:Src/cordic.c  ****   */
  19:Src/cordic.c  **** 
  20:Src/cordic.c  **** /* Includes ------------------------------------------------------------------*/
  21:Src/cordic.c  **** #include "cordic.h"
  22:Src/cordic.c  **** 
  23:Src/cordic.c  **** /* USER CODE BEGIN 0 */
  24:Src/cordic.c  **** 
  25:Src/cordic.c  **** /* USER CODE END 0 */
  26:Src/cordic.c  **** 
  27:Src/cordic.c  **** CORDIC_HandleTypeDef hcordic;
  28:Src/cordic.c  **** 
  29:Src/cordic.c  **** /* CORDIC init function */
  30:Src/cordic.c  **** void MX_CORDIC_Init(void)
ARM GAS  /tmp/ccCgd1c0.s 			page 2


  31:Src/cordic.c  **** {
  29              		.loc 1 31 1 view -0
  30              		.cfi_startproc
  31              		@ args = 0, pretend = 0, frame = 0
  32              		@ frame_needed = 0, uses_anonymous_args = 0
  33 0000 08B5     		push	{r3, lr}
  34              	.LCFI0:
  35              		.cfi_def_cfa_offset 8
  36              		.cfi_offset 3, -8
  37              		.cfi_offset 14, -4
  32:Src/cordic.c  **** 
  33:Src/cordic.c  ****   hcordic.Instance = CORDIC;
  38              		.loc 1 33 3 view .LVU1
  39              		.loc 1 33 20 is_stmt 0 view .LVU2
  40 0002 0548     		ldr	r0, .L5
  41 0004 054B     		ldr	r3, .L5+4
  42 0006 0360     		str	r3, [r0]
  34:Src/cordic.c  ****   if (HAL_CORDIC_Init(&hcordic) != HAL_OK)
  43              		.loc 1 34 3 is_stmt 1 view .LVU3
  44              		.loc 1 34 7 is_stmt 0 view .LVU4
  45 0008 FFF7FEFF 		bl	HAL_CORDIC_Init
  46              	.LVL0:
  47              		.loc 1 34 6 view .LVU5
  48 000c 00B9     		cbnz	r0, .L4
  49              	.L1:
  35:Src/cordic.c  ****   {
  36:Src/cordic.c  ****     Error_Handler();
  37:Src/cordic.c  ****   }
  38:Src/cordic.c  **** 
  39:Src/cordic.c  **** }
  50              		.loc 1 39 1 view .LVU6
  51 000e 08BD     		pop	{r3, pc}
  52              	.L4:
  36:Src/cordic.c  ****   }
  53              		.loc 1 36 5 is_stmt 1 view .LVU7
  54 0010 FFF7FEFF 		bl	Error_Handler
  55              	.LVL1:
  56              		.loc 1 39 1 is_stmt 0 view .LVU8
  57 0014 FBE7     		b	.L1
  58              	.L6:
  59 0016 00BF     		.align	2
  60              	.L5:
  61 0018 00000000 		.word	hcordic
  62 001c 000C0240 		.word	1073875968
  63              		.cfi_endproc
  64              	.LFE209:
  66              		.section	.text.HAL_CORDIC_MspInit,"ax",%progbits
  67              		.align	1
  68              		.global	HAL_CORDIC_MspInit
  69              		.syntax unified
  70              		.thumb
  71              		.thumb_func
  72              		.fpu fpv4-sp-d16
  74              	HAL_CORDIC_MspInit:
  75              	.LVL2:
  76              	.LFB210:
  40:Src/cordic.c  **** 
ARM GAS  /tmp/ccCgd1c0.s 			page 3


  41:Src/cordic.c  **** void HAL_CORDIC_MspInit(CORDIC_HandleTypeDef* cordicHandle)
  42:Src/cordic.c  **** {
  77              		.loc 1 42 1 is_stmt 1 view -0
  78              		.cfi_startproc
  79              		@ args = 0, pretend = 0, frame = 8
  80              		@ frame_needed = 0, uses_anonymous_args = 0
  81              		@ link register save eliminated.
  43:Src/cordic.c  **** 
  44:Src/cordic.c  ****   if(cordicHandle->Instance==CORDIC)
  82              		.loc 1 44 3 view .LVU10
  83              		.loc 1 44 18 is_stmt 0 view .LVU11
  84 0000 0268     		ldr	r2, [r0]
  85              		.loc 1 44 5 view .LVU12
  86 0002 094B     		ldr	r3, .L14
  87 0004 9A42     		cmp	r2, r3
  88 0006 00D0     		beq	.L13
  89 0008 7047     		bx	lr
  90              	.L13:
  42:Src/cordic.c  **** 
  91              		.loc 1 42 1 view .LVU13
  92 000a 82B0     		sub	sp, sp, #8
  93              	.LCFI1:
  94              		.cfi_def_cfa_offset 8
  45:Src/cordic.c  ****   {
  46:Src/cordic.c  ****   /* USER CODE BEGIN CORDIC_MspInit 0 */
  47:Src/cordic.c  **** 
  48:Src/cordic.c  ****   /* USER CODE END CORDIC_MspInit 0 */
  49:Src/cordic.c  ****     /* CORDIC clock enable */
  50:Src/cordic.c  ****     __HAL_RCC_CORDIC_CLK_ENABLE();
  95              		.loc 1 50 5 is_stmt 1 view .LVU14
  96              	.LBB2:
  97              		.loc 1 50 5 view .LVU15
  98              		.loc 1 50 5 view .LVU16
  99 000c 03F58063 		add	r3, r3, #1024
 100 0010 9A6C     		ldr	r2, [r3, #72]
 101 0012 42F00802 		orr	r2, r2, #8
 102 0016 9A64     		str	r2, [r3, #72]
 103              		.loc 1 50 5 view .LVU17
 104 0018 9B6C     		ldr	r3, [r3, #72]
 105 001a 03F00803 		and	r3, r3, #8
 106 001e 0193     		str	r3, [sp, #4]
 107              		.loc 1 50 5 view .LVU18
 108 0020 019B     		ldr	r3, [sp, #4]
 109              	.LBE2:
 110              		.loc 1 50 5 view .LVU19
  51:Src/cordic.c  ****   /* USER CODE BEGIN CORDIC_MspInit 1 */
  52:Src/cordic.c  **** 
  53:Src/cordic.c  ****   /* USER CODE END CORDIC_MspInit 1 */
  54:Src/cordic.c  ****   }
  55:Src/cordic.c  **** }
 111              		.loc 1 55 1 is_stmt 0 view .LVU20
 112 0022 02B0     		add	sp, sp, #8
 113              	.LCFI2:
 114              		.cfi_def_cfa_offset 0
 115              		@ sp needed
 116 0024 7047     		bx	lr
 117              	.L15:
ARM GAS  /tmp/ccCgd1c0.s 			page 4


 118 0026 00BF     		.align	2
 119              	.L14:
 120 0028 000C0240 		.word	1073875968
 121              		.cfi_endproc
 122              	.LFE210:
 124              		.section	.text.HAL_CORDIC_MspDeInit,"ax",%progbits
 125              		.align	1
 126              		.global	HAL_CORDIC_MspDeInit
 127              		.syntax unified
 128              		.thumb
 129              		.thumb_func
 130              		.fpu fpv4-sp-d16
 132              	HAL_CORDIC_MspDeInit:
 133              	.LVL3:
 134              	.LFB211:
  56:Src/cordic.c  **** 
  57:Src/cordic.c  **** void HAL_CORDIC_MspDeInit(CORDIC_HandleTypeDef* cordicHandle)
  58:Src/cordic.c  **** {
 135              		.loc 1 58 1 is_stmt 1 view -0
 136              		.cfi_startproc
 137              		@ args = 0, pretend = 0, frame = 0
 138              		@ frame_needed = 0, uses_anonymous_args = 0
 139              		@ link register save eliminated.
  59:Src/cordic.c  **** 
  60:Src/cordic.c  ****   if(cordicHandle->Instance==CORDIC)
 140              		.loc 1 60 3 view .LVU22
 141              		.loc 1 60 18 is_stmt 0 view .LVU23
 142 0000 0268     		ldr	r2, [r0]
 143              		.loc 1 60 5 view .LVU24
 144 0002 054B     		ldr	r3, .L19
 145 0004 9A42     		cmp	r2, r3
 146 0006 00D0     		beq	.L18
 147              	.L16:
  61:Src/cordic.c  ****   {
  62:Src/cordic.c  ****   /* USER CODE BEGIN CORDIC_MspDeInit 0 */
  63:Src/cordic.c  **** 
  64:Src/cordic.c  ****   /* USER CODE END CORDIC_MspDeInit 0 */
  65:Src/cordic.c  ****     /* Peripheral clock disable */
  66:Src/cordic.c  ****     __HAL_RCC_CORDIC_CLK_DISABLE();
  67:Src/cordic.c  ****   /* USER CODE BEGIN CORDIC_MspDeInit 1 */
  68:Src/cordic.c  **** 
  69:Src/cordic.c  ****   /* USER CODE END CORDIC_MspDeInit 1 */
  70:Src/cordic.c  ****   }
  71:Src/cordic.c  **** } 
 148              		.loc 1 71 1 view .LVU25
 149 0008 7047     		bx	lr
 150              	.L18:
  66:Src/cordic.c  ****   /* USER CODE BEGIN CORDIC_MspDeInit 1 */
 151              		.loc 1 66 5 is_stmt 1 view .LVU26
 152 000a 044A     		ldr	r2, .L19+4
 153 000c 936C     		ldr	r3, [r2, #72]
 154 000e 23F00803 		bic	r3, r3, #8
 155 0012 9364     		str	r3, [r2, #72]
 156              		.loc 1 71 1 is_stmt 0 view .LVU27
 157 0014 F8E7     		b	.L16
 158              	.L20:
 159 0016 00BF     		.align	2
ARM GAS  /tmp/ccCgd1c0.s 			page 5


 160              	.L19:
 161 0018 000C0240 		.word	1073875968
 162 001c 00100240 		.word	1073876992
 163              		.cfi_endproc
 164              	.LFE211:
 166              		.comm	hcordic,40,4
 167              		.text
 168              	.Letext0:
 169              		.file 2 "/usr/lib/gcc/arm-none-eabi/9.2.1/include/stdint.h"
 170              		.file 3 "Drivers/CMSIS/Include/core_cm4.h"
 171              		.file 4 "Drivers/CMSIS/Device/ST/STM32G4xx/Include/system_stm32g4xx.h"
 172              		.file 5 "Drivers/CMSIS/Device/ST/STM32G4xx/Include/stm32g431xx.h"
 173              		.file 6 "Drivers/STM32G4xx_HAL_Driver/Inc/stm32g4xx_hal_def.h"
 174              		.file 7 "Drivers/STM32G4xx_HAL_Driver/Inc/stm32g4xx_hal_dma.h"
 175              		.file 8 "Drivers/STM32G4xx_HAL_Driver/Inc/stm32g4xx_hal_cordic.h"
 176              		.file 9 "Drivers/STM32G4xx_HAL_Driver/Inc/stm32g4xx_hal_flash.h"
 177              		.file 10 "Drivers/STM32G4xx_HAL_Driver/Inc/stm32g4xx_hal.h"
 178              		.file 11 "Inc/cordic.h"
 179              		.file 12 "Inc/main.h"
ARM GAS  /tmp/ccCgd1c0.s 			page 6

